target datalayout = "e-m:e-p270:32:32-p271:32:32-p272:64:64-i64:64-i128:128-f80:128-n8:16:32:64-S128"
target triple = "x86_64-pc-linux-gnu"

%struct._object = type { %union.anon, ptr }
%union.anon = type { i64 }
%union.value = type { x86_fp80 }
%struct.PyCFuncPtrObject = type { %struct._object, ptr, i32, ptr, i64, i64, i64, ptr, %union.value, ptr, ptr, ptr, ptr, ptr, ptr, ptr, ptr }

; Function Attrs: nounwind uwtable
define internal i32 @PyCFuncPtr_traverse(ptr noundef %0, ptr noundef %1, ptr noundef %2) #0 {
  %4 = alloca i32, align 4
  %5 = alloca ptr, align 8
  %6 = alloca ptr, align 8
  %7 = alloca ptr, align 8
  %8 = alloca ptr, align 8
  %9 = alloca i32, align 4
  %10 = alloca i32, align 4
  %11 = alloca i32, align 4
  %12 = alloca i32, align 4
  %13 = alloca i32, align 4
  %14 = alloca i32, align 4
  %15 = alloca i32, align 4
  %16 = alloca i32, align 4
  %17 = alloca i32, align 4
  store ptr %0, ptr %5, align 8, !tbaa !7
  store ptr %1, ptr %6, align 8, !tbaa !3
  store ptr %2, ptr %7, align 8, !tbaa !3
  call void @llvm.lifetime.start.p0(i64 8, ptr %8) #9
  %18 = load ptr, ptr %5, align 8, !tbaa !7
  store ptr %18, ptr %8, align 8, !tbaa !3
  br label %19

19:                                               ; preds = %3
  %20 = load ptr, ptr %8, align 8, !tbaa !3
  %21 = getelementptr inbounds nuw %struct.PyCFuncPtrObject, ptr %20, i32 0, i32 10
  %22 = load ptr, ptr %21, align 8, !tbaa !220
  %23 = icmp ne ptr %22, null
  br i1 %23, label %24, label %39

24:                                               ; preds = %19
  call void @llvm.lifetime.start.p0(i64 4, ptr %9) #9
  %25 = load ptr, ptr %6, align 8, !tbaa !3
  %26 = load ptr, ptr %8, align 8, !tbaa !3
  %27 = getelementptr inbounds nuw %struct.PyCFuncPtrObject, ptr %26, i32 0, i32 10
  %28 = load ptr, ptr %27, align 8, !tbaa !220
  %29 = load ptr, ptr %7, align 8, !tbaa !3
  %30 = call i32 %25(ptr noundef %28, ptr noundef %29)
  store i32 %30, ptr %9, align 4, !tbaa !16
  %31 = load i32, ptr %9, align 4, !tbaa !16
  %32 = icmp ne i32 %31, 0
  br i1 %32, label %33, label %35

33:                                               ; preds = %24
  %34 = load i32, ptr %9, align 4, !tbaa !16
  store i32 %34, ptr %4, align 4
  store i32 1, ptr %10, align 4
  br label %36

35:                                               ; preds = %24
  store i32 0, ptr %10, align 4
  br label %36

36:                                               ; preds = %35, %33
  call void @llvm.lifetime.end.p0(i64 4, ptr %9) #9
  %37 = load i32, ptr %10, align 4
  switch i32 %37, label %207 [
    i32 0, label %38
  ]

38:                                               ; preds = %36
  br label %39

39:                                               ; preds = %38, %19
  br label %40

40:                                               ; preds = %39
  br label %41

41:                                               ; preds = %40
  br label %42

42:                                               ; preds = %41
  %43 = load ptr, ptr %8, align 8, !tbaa !3
  %44 = getelementptr inbounds nuw %struct.PyCFuncPtrObject, ptr %43, i32 0, i32 13
  %45 = load ptr, ptr %44, align 16, !tbaa !215
  %46 = icmp ne ptr %45, null
  br i1 %46, label %47, label %62

47:                                               ; preds = %42
  call void @llvm.lifetime.start.p0(i64 4, ptr %11) #9
  %48 = load ptr, ptr %6, align 8, !tbaa !3
  %49 = load ptr, ptr %8, align 8, !tbaa !3
  %50 = getelementptr inbounds nuw %struct.PyCFuncPtrObject, ptr %49, i32 0, i32 13
  %51 = load ptr, ptr %50, align 16, !tbaa !215
  %52 = load ptr, ptr %7, align 8, !tbaa !3
  %53 = call i32 %48(ptr noundef %51, ptr noundef %52)
  store i32 %53, ptr %11, align 4, !tbaa !16
  %54 = load i32, ptr %11, align 4, !tbaa !16
  %55 = icmp ne i32 %54, 0
  br i1 %55, label %56, label %58

56:                                               ; preds = %47
  %57 = load i32, ptr %11, align 4, !tbaa !16
  store i32 %57, ptr %4, align 4
  store i32 1, ptr %10, align 4
  br label %59

58:                                               ; preds = %47
  store i32 0, ptr %10, align 4
  br label %59

59:                                               ; preds = %58, %56
  call void @llvm.lifetime.end.p0(i64 4, ptr %11) #9
  %60 = load i32, ptr %10, align 4
  switch i32 %60, label %207 [
    i32 0, label %61
  ]

61:                                               ; preds = %59
  br label %62

62:                                               ; preds = %61, %42
  br label %63

63:                                               ; preds = %62
  br label %64

64:                                               ; preds = %63
  br label %65

65:                                               ; preds = %64
  %66 = load ptr, ptr %8, align 8, !tbaa !3
  %67 = getelementptr inbounds nuw %struct.PyCFuncPtrObject, ptr %66, i32 0, i32 14
  %68 = load ptr, ptr %67, align 8, !tbaa !217
  %69 = icmp ne ptr %68, null
  br i1 %69, label %70, label %85

70:                                               ; preds = %65
  call void @llvm.lifetime.start.p0(i64 4, ptr %12) #9
  %71 = load ptr, ptr %6, align 8, !tbaa !3
  %72 = load ptr, ptr %8, align 8, !tbaa !3
  %73 = getelementptr inbounds nuw %struct.PyCFuncPtrObject, ptr %72, i32 0, i32 14
  %74 = load ptr, ptr %73, align 8, !tbaa !217
  %75 = load ptr, ptr %7, align 8, !tbaa !3
  %76 = call i32 %71(ptr noundef %74, ptr noundef %75)
  store i32 %76, ptr %12, align 4, !tbaa !16
  %77 = load i32, ptr %12, align 4, !tbaa !16
  %78 = icmp ne i32 %77, 0
  br i1 %78, label %79, label %81

79:                                               ; preds = %70
  %80 = load i32, ptr %12, align 4, !tbaa !16
  store i32 %80, ptr %4, align 4
  store i32 1, ptr %10, align 4
  br label %82

81:                                               ; preds = %70
  store i32 0, ptr %10, align 4
  br label %82

82:                                               ; preds = %81, %79
  call void @llvm.lifetime.end.p0(i64 4, ptr %12) #9
  %83 = load i32, ptr %10, align 4
  switch i32 %83, label %207 [
    i32 0, label %84
  ]

84:                                               ; preds = %82
  br label %85

85:                                               ; preds = %84, %65
  br label %86

86:                                               ; preds = %85
  br label %87

87:                                               ; preds = %86
  br label %88

88:                                               ; preds = %87
  %89 = load ptr, ptr %8, align 8, !tbaa !3
  %90 = getelementptr inbounds nuw %struct.PyCFuncPtrObject, ptr %89, i32 0, i32 15
  %91 = load ptr, ptr %90, align 16, !tbaa !219
  %92 = icmp ne ptr %91, null
  br i1 %92, label %93, label %108

93:                                               ; preds = %88
  call void @llvm.lifetime.start.p0(i64 4, ptr %13) #9
  %94 = load ptr, ptr %6, align 8, !tbaa !3
  %95 = load ptr, ptr %8, align 8, !tbaa !3
  %96 = getelementptr inbounds nuw %struct.PyCFuncPtrObject, ptr %95, i32 0, i32 15
  %97 = load ptr, ptr %96, align 16, !tbaa !219
  %98 = load ptr, ptr %7, align 8, !tbaa !3
  %99 = call i32 %94(ptr noundef %97, ptr noundef %98)
  store i32 %99, ptr %13, align 4, !tbaa !16
  %100 = load i32, ptr %13, align 4, !tbaa !16
  %101 = icmp ne i32 %100, 0
  br i1 %101, label %102, label %104

102:                                              ; preds = %93
  %103 = load i32, ptr %13, align 4, !tbaa !16
  store i32 %103, ptr %4, align 4
  store i32 1, ptr %10, align 4
  br label %105

104:                                              ; preds = %93
  store i32 0, ptr %10, align 4
  br label %105

105:                                              ; preds = %104, %102
  call void @llvm.lifetime.end.p0(i64 4, ptr %13) #9
  %106 = load i32, ptr %10, align 4
  switch i32 %106, label %207 [
    i32 0, label %107
  ]

107:                                              ; preds = %105
  br label %108

108:                                              ; preds = %107, %88
  br label %109

109:                                              ; preds = %108
  br label %110

110:                                              ; preds = %109
  br label %111

111:                                              ; preds = %110
  %112 = load ptr, ptr %8, align 8, !tbaa !3
  %113 = getelementptr inbounds nuw %struct.PyCFuncPtrObject, ptr %112, i32 0, i32 12
  %114 = load ptr, ptr %113, align 8, !tbaa !218
  %115 = icmp ne ptr %114, null
  br i1 %115, label %116, label %131

116:                                              ; preds = %111
  call void @llvm.lifetime.start.p0(i64 4, ptr %14) #9
  %117 = load ptr, ptr %6, align 8, !tbaa !3
  %118 = load ptr, ptr %8, align 8, !tbaa !3
  %119 = getelementptr inbounds nuw %struct.PyCFuncPtrObject, ptr %118, i32 0, i32 12
  %120 = load ptr, ptr %119, align 8, !tbaa !218
  %121 = load ptr, ptr %7, align 8, !tbaa !3
  %122 = call i32 %117(ptr noundef %120, ptr noundef %121)
  store i32 %122, ptr %14, align 4, !tbaa !16
  %123 = load i32, ptr %14, align 4, !tbaa !16
  %124 = icmp ne i32 %123, 0
  br i1 %124, label %125, label %127

125:                                              ; preds = %116
  %126 = load i32, ptr %14, align 4, !tbaa !16
  store i32 %126, ptr %4, align 4
  store i32 1, ptr %10, align 4
  br label %128

127:                                              ; preds = %116
  store i32 0, ptr %10, align 4
  br label %128

128:                                              ; preds = %127, %125
  call void @llvm.lifetime.end.p0(i64 4, ptr %14) #9
  %129 = load i32, ptr %10, align 4
  switch i32 %129, label %207 [
    i32 0, label %130
  ]

130:                                              ; preds = %128
  br label %131

131:                                              ; preds = %130, %111
  br label %132

132:                                              ; preds = %131
  br label %133

133:                                              ; preds = %132
  br label %134

134:                                              ; preds = %133
  %135 = load ptr, ptr %8, align 8, !tbaa !3
  %136 = getelementptr inbounds nuw %struct.PyCFuncPtrObject, ptr %135, i32 0, i32 11
  %137 = load ptr, ptr %136, align 16, !tbaa !216
  %138 = icmp ne ptr %137, null
  br i1 %138, label %139, label %154

139:                                              ; preds = %134
  call void @llvm.lifetime.start.p0(i64 4, ptr %15) #9
  %140 = load ptr, ptr %6, align 8, !tbaa !3
  %141 = load ptr, ptr %8, align 8, !tbaa !3
  %142 = getelementptr inbounds nuw %struct.PyCFuncPtrObject, ptr %141, i32 0, i32 11
  %143 = load ptr, ptr %142, align 16, !tbaa !216
  %144 = load ptr, ptr %7, align 8, !tbaa !3
  %145 = call i32 %140(ptr noundef %143, ptr noundef %144)
  store i32 %145, ptr %15, align 4, !tbaa !16
  %146 = load i32, ptr %15, align 4, !tbaa !16
  %147 = icmp ne i32 %146, 0
  br i1 %147, label %148, label %150

148:                                              ; preds = %139
  %149 = load i32, ptr %15, align 4, !tbaa !16
  store i32 %149, ptr %4, align 4
  store i32 1, ptr %10, align 4
  br label %151

150:                                              ; preds = %139
  store i32 0, ptr %10, align 4
  br label %151

151:                                              ; preds = %150, %148
  call void @llvm.lifetime.end.p0(i64 4, ptr %15) #9
  %152 = load i32, ptr %10, align 4
  switch i32 %152, label %207 [
    i32 0, label %153
  ]

153:                                              ; preds = %151
  br label %154

154:                                              ; preds = %153, %134
  br label %155

155:                                              ; preds = %154
  br label %156

156:                                              ; preds = %155
  br label %157

157:                                              ; preds = %156
  %158 = load ptr, ptr %8, align 8, !tbaa !3
  %159 = getelementptr inbounds nuw %struct.PyCFuncPtrObject, ptr %158, i32 0, i32 16
  %160 = load ptr, ptr %159, align 8, !tbaa !221
  %161 = icmp ne ptr %160, null
  br i1 %161, label %162, label %177

162:                                              ; preds = %157
  call void @llvm.lifetime.start.p0(i64 4, ptr %16) #9
  %163 = load ptr, ptr %6, align 8, !tbaa !3
  %164 = load ptr, ptr %8, align 8, !tbaa !3
  %165 = getelementptr inbounds nuw %struct.PyCFuncPtrObject, ptr %164, i32 0, i32 16
  %166 = load ptr, ptr %165, align 8, !tbaa !221
  %167 = load ptr, ptr %7, align 8, !tbaa !3
  %168 = call i32 %163(ptr noundef %166, ptr noundef %167)
  store i32 %168, ptr %16, align 4, !tbaa !16
  %169 = load i32, ptr %16, align 4, !tbaa !16
  %170 = icmp ne i32 %169, 0
  br i1 %170, label %171, label %173

171:                                              ; preds = %162
  %172 = load i32, ptr %16, align 4, !tbaa !16
  store i32 %172, ptr %4, align 4
  store i32 1, ptr %10, align 4
  br label %174

173:                                              ; preds = %162
  store i32 0, ptr %10, align 4
  br label %174

174:                                              ; preds = %173, %171
  call void @llvm.lifetime.end.p0(i64 4, ptr %16) #9
  %175 = load i32, ptr %10, align 4
  switch i32 %175, label %207 [
    i32 0, label %176
  ]

176:                                              ; preds = %174
  br label %177

177:                                              ; preds = %176, %157
  br label %178

178:                                              ; preds = %177
  br label %179

179:                                              ; preds = %178
  br label %180

180:                                              ; preds = %179
  %181 = load ptr, ptr %8, align 8, !tbaa !3
  %182 = getelementptr inbounds nuw %struct.PyCFuncPtrObject, ptr %181, i32 0, i32 9
  %183 = load ptr, ptr %182, align 16, !tbaa !222
  %184 = icmp ne ptr %183, null
  br i1 %184, label %185, label %200

185:                                              ; preds = %180
  call void @llvm.lifetime.start.p0(i64 4, ptr %17) #9
  %186 = load ptr, ptr %6, align 8, !tbaa !3
  %187 = load ptr, ptr %8, align 8, !tbaa !3
  %188 = getelementptr inbounds nuw %struct.PyCFuncPtrObject, ptr %187, i32 0, i32 9
  %189 = load ptr, ptr %188, align 16, !tbaa !222
  %190 = load ptr, ptr %7, align 8, !tbaa !3
  %191 = call i32 %186(ptr noundef %189, ptr noundef %190)
  store i32 %191, ptr %17, align 4, !tbaa !16
  %192 = load i32, ptr %17, align 4, !tbaa !16
  %193 = icmp ne i32 %192, 0
  br i1 %193, label %194, label %196

194:                                              ; preds = %185
  %195 = load i32, ptr %17, align 4, !tbaa !16
  store i32 %195, ptr %4, align 4
  store i32 1, ptr %10, align 4
  br label %197

196:                                              ; preds = %185
  store i32 0, ptr %10, align 4
  br label %197

197:                                              ; preds = %196, %194
  call void @llvm.lifetime.end.p0(i64 4, ptr %17) #9
  %198 = load i32, ptr %10, align 4
  switch i32 %198, label %207 [
    i32 0, label %199
  ]

199:                                              ; preds = %197
  br label %200

200:                                              ; preds = %199, %180
  br label %201

201:                                              ; preds = %200
  br label %202

202:                                              ; preds = %201
  %203 = load ptr, ptr %5, align 8, !tbaa !7
  %204 = load ptr, ptr %6, align 8, !tbaa !3
  %205 = load ptr, ptr %7, align 8, !tbaa !3
  %206 = call i32 @PyCData_traverse(ptr noundef %203, ptr noundef %204, ptr noundef %205)
  store i32 %206, ptr %4, align 4
  store i32 1, ptr %10, align 4
  br label %207

207:                                              ; preds = %202, %197, %174, %151, %128, %105, %82, %59, %36
  call void @llvm.lifetime.end.p0(i64 8, ptr %8) #9
  %208 = load i32, ptr %4, align 4
  ret i32 %208
}