; Function Attrs: nounwind uwtable
define internal i32 @PyCFuncPtr_traverse(ptr noundef readonly captures(none) %0, ptr noundef readonly captures(none) %1, ptr noundef %2) #0 {
  %4 = getelementptr inbounds nuw i8, ptr %0, i64 104
  %5 = load ptr, ptr %4, align 8, !tbaa !203
  %.not = icmp eq ptr %5, null
  br i1 %.not, label %8, label %6

6:                                                ; preds = %3
  %7 = tail call i32 %1(ptr noundef nonnull %5, ptr noundef %2) #17
  %.not89 = icmp eq i32 %7, 0
  br i1 %.not89, label %8, label %45

8:                                                ; preds = %3, %6
  %9 = getelementptr inbounds nuw i8, ptr %0, i64 128
  %10 = load ptr, ptr %9, align 16, !tbaa !192
  %.not90 = icmp eq ptr %10, null
  br i1 %.not90, label %13, label %11

11:                                               ; preds = %8
  %12 = tail call i32 %1(ptr noundef nonnull %10, ptr noundef %2) #17
  %.not91 = icmp eq i32 %12, 0
  br i1 %.not91, label %13, label %45

13:                                               ; preds = %8, %11
  %14 = getelementptr inbounds nuw i8, ptr %0, i64 136
  %15 = load ptr, ptr %14, align 8, !tbaa !194
  %.not92 = icmp eq ptr %15, null
  br i1 %.not92, label %18, label %16

16:                                               ; preds = %13
  %17 = tail call i32 %1(ptr noundef nonnull %15, ptr noundef %2) #17
  %.not93 = icmp eq i32 %17, 0
  br i1 %.not93, label %18, label %45

18:                                               ; preds = %13, %16
  %19 = getelementptr inbounds nuw i8, ptr %0, i64 144
  %20 = load ptr, ptr %19, align 16, !tbaa !196
  %.not94 = icmp eq ptr %20, null
  br i1 %.not94, label %23, label %21

21:                                               ; preds = %18
  %22 = tail call i32 %1(ptr noundef nonnull %20, ptr noundef %2) #17
  %.not95 = icmp eq i32 %22, 0
  br i1 %.not95, label %23, label %45

23:                                               ; preds = %18, %21
  %24 = getelementptr inbounds nuw i8, ptr %0, i64 120
  %25 = load ptr, ptr %24, align 8, !tbaa !195
  %.not96 = icmp eq ptr %25, null
  br i1 %.not96, label %28, label %26

26:                                               ; preds = %23
  %27 = tail call i32 %1(ptr noundef nonnull %25, ptr noundef %2) #17
  %.not97 = icmp eq i32 %27, 0
  br i1 %.not97, label %28, label %45

28:                                               ; preds = %23, %26
  %29 = getelementptr inbounds nuw i8, ptr %0, i64 112
  %30 = load ptr, ptr %29, align 16, !tbaa !193
  %.not98 = icmp eq ptr %30, null
  br i1 %.not98, label %33, label %31

31:                                               ; preds = %28
  %32 = tail call i32 %1(ptr noundef nonnull %30, ptr noundef %2) #17
  %.not99 = icmp eq i32 %32, 0
  br i1 %.not99, label %33, label %45

33:                                               ; preds = %28, %31
  %34 = getelementptr inbounds nuw i8, ptr %0, i64 152
  %35 = load ptr, ptr %34, align 8, !tbaa !197
  %.not100 = icmp eq ptr %35, null
  br i1 %.not100, label %38, label %36

36:                                               ; preds = %33
  %37 = tail call i32 %1(ptr noundef nonnull %35, ptr noundef %2) #17
  %.not101 = icmp eq i32 %37, 0
  br i1 %.not101, label %38, label %45

38:                                               ; preds = %33, %36
  %39 = getelementptr inbounds nuw i8, ptr %0, i64 96
  %40 = load ptr, ptr %39, align 16, !tbaa !204
  %.not102 = icmp eq ptr %40, null
  br i1 %.not102, label %43, label %41

41:                                               ; preds = %38
  %42 = tail call i32 %1(ptr noundef nonnull %40, ptr noundef %2) #17
  %.not103 = icmp eq i32 %42, 0
  br i1 %.not103, label %43, label %45

43:                                               ; preds = %41, %38
  %44 = tail call i32 @PyCData_traverse(ptr noundef nonnull %0, ptr noundef %1, ptr noundef %2)
  br label %45

45:                                               ; preds = %6, %11, %16, %21, %26, %31, %36, %41, %43
  %.1 = phi i32 [ %44, %43 ], [ %42, %41 ], [ %37, %36 ], [ %32, %31 ], [ %27, %26 ], [ %22, %21 ], [ %17, %16 ], [ %12, %11 ], [ %7, %6 ]
  ret i32 %.1
}